(dp0
Vraining
p1
I120
sVall
p2
I65
sVhelp
p3
I106
sVdatetime
p4
I18
sVnot
p5
I121
sVwindy
p6
I168
sVquestions
p7
I112
sV{"#
p8
I11
sVyep
p9
I132
sVyes
p10
I130
sS'</s>'
p11
I2
sVyet
p12
I123
sV24
p13
I118
sVjose
p14
I73
sV26
p15
I149
sV27
p16
I184
sV20
p17
I143
sV21
p18
I157
sV22
p19
I133
sV23
p20
I166
sVsnowing
p21
I151
sV28
p22
I104
sV,
p23
I47
sVboston
p24
I81
sVto
p25
I116
sVgoing
p26
I146
sV4
p27
I177
sV8
p28
I185
sVsorry
p29
I88
sS'<'
p30
I66
sVdo
p31
I29
sVgood
p32
I93
sVuhm
p33
I49
sVsunny
p34
I150
sVdc
p35
I96
sVanswer
p36
I64
sVreport
p37
I34
sVday
p38
I75
sVlike
p39
I174
sVcloudy
p40
I188
sVmorning
p41
I82
sV19
p42
I171
sVt
p43
I135
sVmean
p44
I54
sVright
p45
I189
sVyeah
p46
I86
sVsee
p47
I78
sVare
p48
I37
sVquery
p49
I19
sVwhat
p50
I14
sVsaid
p51
I30
sV'
p52
I32
sVfine
p53
I131
sVret
p54
I27
sVtomorrow
p55
I33
sV3
p56
I144
sV7
p57
I170
sVnew
p58
I80
sVnope
p59
I125
sVcorrect
p60
I141
sV?
p61
I7
sVcan
p62
I43
sVbe
p63
I44
sVweather_type
p64
I83
sVhere
p65
I16
sVyork
p66
I109
sVthank
p67
I110
sVabout
p68
I61
sV38
p69
I127
sVanything
p70
I51
sVoh
p71
I91
sV33
p72
I159
sV32
p73
I142
sV31
p74
I161
sV30
p75
I156
sVbot
p76
I67
sV36
p77
I175
sV35
p78
I167
sV34
p79
I152
sVangeles
p80
I114
sVthing
p81
I128
sVs
p82
I36
sVplace
p83
I92
sVrequests
p84
I124
sVaustin
p85
I77
sS'silence'
p86
I68
sVthis
p87
I41
sVsearch
p88
I119
sVwashington
p89
I94
sVwhatever
p90
I129
sVone
p91
I101
sVweather
p92
I10
sVdone
p93
I122
sV.
p94
I5
sVyour
p95
I35
sVloc
p96
I20
sV"
p97
I6
sVtemperature
p98
I48
sV0
p99
I178
sS'<s>'
p100
I3
sVphiladelphia
p101
I71
sVnext
p102
I97
sVlos
p103
I113
sV2
p104
I186
sV6
p105
I183
sV["#
p106
I21
sVcare
p107
I140
sVtype
p108
I115
sVtoday
p109
I53
sS'>'
p110
I69
sVthat
p111
I72
sVpittsburgh
p112
I58
sVhuh
p113
I138
sV39
p114
I187
sVelse
p115
I38
sVhmm
p116
I55
sVhi
p117
I105
sVgoals
p118
I22
sVfoggy
p119
I162
sVbelieve
p120
I31
sV11
p121
I179
sV10
p122
I165
sV13
p123
I160
sV12
p124
I163
sV15
p125
I173
sV14
p126
I172
sV17
p127
I180
sV16
p128
I176
sVdefault
p129
I13
sV18
p130
I181
sVup
p131
I111
sVwill
p132
I45
sVuh
p133
I137
sVmore
p134
I79
sVmy
p135
I62
sS'<unk>'
p136
I1
sVsan
p137
I39
sV...
p138
I89
sV37
p139
I145
sVis
p140
I15
sVam
p141
I52
sVit
p142
I147
sV"]}
p143
I23
sVtonight
p144
I50
sV{"
p145
I12
sS'<pad>'
p146
I0
sVat
p147
I46
sVhave
p148
I87
sVin
p149
I40
sVneed
p150
I84
sVseattle
p151
I95
sV25
p152
I148
sVhappy
p153
I63
sVwant
p154
I154
sVno
p155
I70
sV-
p156
I139
sV1
p157
I155
sVhow
p158
I107
sVinterested
p159
I42
sV5
p160
I182
sVwhich
p161
I56
sV9
p162
I169
sVyou
p163
I8
sVnay
p164
I126
sV"},
p165
I24
sVfrancisco
p166
I59
sVokay
p167
I134
sV"#
p168
I25
sV",
p169
I26
sVafter
p170
I76
sV?.
p171
I85
sVwrong
p172
I99
sVdate
p173
I100
sVweekend
p174
I60
sV29
p175
I158
sV":
p176
I4
sVa
p177
I117
sVdon
p178
I136
sVfor
p179
I103
sVdont_care
p180
I74
sVi
p181
I9
sVrequest
p182
I153
sVrobot
p183
I108
sV"}}
p184
I28
sVcity
p185
I90
sVgoodbye
p186
I98
sVtime
p187
I57
sValright
p188
I164
sVthe
p189
I17
sVhello
p190
I102
s.