(dp0
S'all'
p1
I82
sS'excellent'
p2
I210
sS'results'
p3
I140
sS'slot_name'
p4
I146
sS'asian'
p5
I306
sS'go'
p6
I206
sS'query'
p7
I154
sS'mill'
p8
I307
sS'hate'
p9
I308
sS'looking'
p10
I50
sS'certainly'
p11
I227
sS'send'
p12
I260
sS'suits'
p13
I309
sS'to'
p14
I57
sS'sorry'
p15
I81
sS'me'
p16
I71
sS'ciquito'
p17
I310
sS'very'
p18
I102
sS'choice'
p19
I228
sS'did'
p20
I261
sS'venue'
p21
I181
sS'try'
p22
I117
sS'enjoy'
p23
I112
sS'work'
p24
I183
sS'direct'
p25
I312
sS'second'
p26
I207
sS'cost'
p27
I313
sS'further'
p28
I136
sS'what'
p29
I33
sS'preferences'
p30
I208
sS'assistance'
p31
I199
sS'near'
p32
I263
sS'here'
p33
I182
sS'desired'
p34
I264
sS'let'
p35
I176
sS'andrews'
p36
I314
sS'meet'
p37
I211
sS'['
p38
I2
sS'appears'
p39
I316
sS'change'
p40
I194
sS'wait'
p41
I317
sS'search'
p42
I147
sS'experience'
p43
I265
sS'narrow'
p44
I318
sS'options'
p45
I148
sS'addresses'
p46
I266
sS'prefer'
p47
I87
sS'value_phone'
p48
I34
sS'use'
p49
I319
sS'from'
p50
I229
sS'would'
p51
I30
sS'<s>'
p52
I4
sS'next'
p53
I320
sS'few'
p54
I209
sS'call'
p55
I162
sS'recommend'
p56
I124
sS'expinsive'
p57
I321
sS'type'
p58
I149
sS'tell'
p59
I169
sS'today'
p60
I95
sS'more'
p61
I101
sS'sort'
p62
I267
sS'slot_postcode'
p63
I59
sS'telephone'
p64
I322
sS'particular'
p65
I193
sS'glad'
p66
I323
sS'town'
p67
I123
sS'restuarants'
p68
I324
sS'this'
p69
I125
sS'specializes'
p70
I311
sS'can'
p71
I37
sS'following'
p72
I325
sS'fulfill'
p73
I315
sS'my'
p74
I212
sS'numbers'
p75
I213
sS'high'
p76
I326
sS'<pad>'
p77
I0
sS'something'
p78
I88
sS'want'
p79
I72
sS'!'
p80
I46
sS'sir'
p81
I214
sS'end'
p82
I327
sS'provide'
p83
I164
sS'located'
p84
I48
sS'slot_pricerange'
p85
I36
sS'instead'
p86
I163
sS'okay'
p87
I118
sS'description'
p88
I215
sS'information'
p89
I79
sS'may'
p90
I84
sS'fits'
p91
I268
sS'such'
p92
I269
sS'types'
p93
I270
sS'a'
p94
I23
sS'malasian'
p95
I328
sS'binh'
p96
I230
sS'appreciate'
p97
I271
sS'st'
p98
I231
sS'so'
p99
I155
sS'goodbye'
p100
I25
sS'classy'
p101
I329
sS'pleasure'
p102
I330
sS'serving'
p103
I70
sS'help'
p104
I51
sS'course'
p105
I150
sS'looks'
p106
I272
sS'its'
p107
I99
sS'style'
p108
I232
sS'thank'
p109
I24
sS'fit'
p110
I184
sS'how'
p111
I69
sS'somewhere'
p112
I233
sS','
p113
I13
sS'value_count'
p114
I42
sS'choose'
p115
I185
sS'bye'
p116
I122
sS'might'
p117
I195
sS'ly'
p118
I61
sS'value_pricerange'
p119
I21
sS'then'
p120
I156
sS'them'
p121
I107
sS'good'
p122
I86
sS'yo'
p123
I331
sS'matches'
p124
I177
sS'records'
p125
I186
sS'they'
p126
I75
sS'not'
p127
I91
sS'now'
p128
I216
sS'day'
p129
I85
sS'seve'
p130
I332
sS'found'
p131
I100
sS'meal'
p132
I139
sS'another'
p133
I113
sS'our'
p134
I97
sS'really'
p135
I196
sS'category'
p136
I217
sS'increase'
p137
I333
sS'correct'
p138
I234
sS'assist'
p139
I174
sS'qualifications'
p140
I377
sS'recommendations'
p141
I336
sS'quite'
p142
I197
sS'difficulty'
p143
I337
sS'value_postcode'
p144
I74
sS'care'
p145
I235
sS'sytem'
p146
I338
sS'selections'
p147
I339
sS'could'
p148
I103
sS'listings'
p149
I198
sS'thing'
p150
I273
sS'place'
p151
I108
sS'differnt'
p152
I340
sS'first'
p153
I236
sS'dine'
p154
I274
sS'appeals'
p155
I341
sS'features'
p156
I342
sS'delicious'
p157
I275
sS'reached'
p158
I187
sS'locdated'
p159
I343
sS'city'
p160
I109
sS'rated'
p161
I276
sS'service'
p162
I277
sS'needed'
p163
I157
sS'system'
p164
I78
sS'value_area'
p165
I18
sS'their'
p166
I38
sS'wonderful'
p167
I237
sS'listed'
p168
I142
sS'saint'
p169
I344
sS'too'
p170
I170
sS'option'
p171
I238
sS'that'
p172
I32
sS'serve'
p173
I76
sS'part'
p174
I188
sS'specify'
p175
I346
sS'milton'
p176
I347
sS'kind'
p177
I348
sS'b'
p178
I239
sS'unfortunately'
p179
I189
sS'require'
p180
I349
sS'matter'
p181
I278
sS'were'
p182
I240
sS'and'
p183
I16
sS'mind'
p184
I144
sS'talking'
p185
I350
sS'have'
p186
I40
sS'need'
p187
I80
sS'afraid'
p188
I279
sS'convenient'
p189
I351
sS'-'
p190
I62
sS'dining'
p191
I381
sS'fitting'
p192
I353
sS'which'
p193
I89
sS'finding'
p194
I241
sS'sure'
p195
I171
sS'shall'
p196
I354
sS'huh'
p197
I345
sS'price'
p198
I129
sS'reach'
p199
I218
sS'restaurnt'
p200
I280
sS'victoria'
p201
I355
sS'most'
p202
I356
sS'nothing'
p203
I281
sS']'
p204
I3
sS'pipasha'
p205
I357
sS'request'
p206
I126
sS'specification'
p207
I262
sS'show'
p208
I190
sS'fine'
p209
I135
sS'find'
p210
I68
sS'menu'
p211
I358
sS'woluld'
p212
I359
sS'should'
p213
I200
sS'only'
p214
I191
sS'pretty'
p215
I282
sS'hope'
p216
I242
sS'do'
p217
I53
sS'get'
p218
I104
sS'preferred'
p219
I283
sS'cannot'
p220
I165
sS'regarding'
p221
I284
sS'bar'
p222
I360
sS'resteraunt'
p223
I285
sS'calling'
p224
I172
sS'queries'
p225
I361
sS'where'
p226
I166
sS'moderatre'
p227
I362
sS'requirement'
p228
I286
sS'restaraunts'
p229
I363
sS'see'
p230
I287
sS'are'
p231
I28
sS'apologies'
p232
I364
sS'best'
p233
I243
sS'closer'
p234
I365
sS'away'
p235
I366
sS'currently'
p236
I367
sS'please'
p237
I45
sS'available'
p238
I130
sS'we'
p239
I137
sS'however'
p240
I219
sS'job'
p241
I368
sS'come'
p242
I288
sS'both'
p243
I143
sS'c'
p244
I244
sS'restaurant'
p245
I15
sS'many'
p246
I245
sS's'
p247
I65
sS'requests'
p248
I201
sS'nearby'
p249
I369
sS'loated'
p250
I370
sS'been'
p251
I220
sS'.'
p252
I6
sS'much'
p253
I119
sS'interest'
p254
I221
sS'meeting'
p255
I246
sS'great'
p256
I92
sS'else'
p257
I43
sS'eatery'
p258
I289
sS'those'
p259
I132
sS'sound'
p260
I222
sS'look'
p261
I192
sS'tanh'
p262
I372
sS'these'
p263
I202
sS'slot_area'
p264
I19
sS'bill'
p265
I290
sS'choices'
p266
I373
sS'will'
p267
I110
sS'while'
p268
I291
sS'is'
p269
I8
sS'it'
p270
I54
sS'evening'
p271
I158
sS'im'
p272
I223
sS'in'
p273
I14
sS'id'
p274
I292
sS'if'
p275
I131
sS'different'
p276
I111
sS'anymore'
p277
I374
sS'suggest'
p278
I173
sS'make'
p279
I247
sS'inquiry'
p280
I293
sS'several'
p281
I115
sS'tnahh'
p282
I392
sS'chesterton'
p283
I224
sS'meets'
p284
I375
sS'elese'
p285
I376
sS'closest'
p286
I295
sS'again'
p287
I153
sS'resturants'
p288
I334
sS'hang'
p289
I335
sS'epensive'
p290
I378
sS'expand'
p291
I248
sS'database'
p292
I249
sS'i'
p293
I12
sS'well'
p294
I159
sS'contact'
p295
I178
sS'y'
p296
I250
sS'the'
p297
I7
sS'preference'
p298
I94
sS'slot_address'
p299
I29
sS'less'
p300
I379
sS'able'
p301
I352
sS'rest'
p302
I380
sS'value_food'
p303
I11
sS'thanks'
p304
I96
sS'questions'
p305
I251
sS'yes'
p306
I64
sS'</s>'
p307
I5
sS'also'
p308
I114
sS'seems'
p309
I382
sS'recommended'
p310
I383
sS'ther'
p311
I384
sS'interested'
p312
I128
sS'has'
p313
I203
sS'match'
p314
I252
sS'couple'
p315
I296
sS'know'
p316
I127
sS'using'
p317
I83
sS'd'
p318
I253
sS'desire'
p319
I385
sS'showing'
p320
I294
sS'like'
p321
I31
sS'alternatively'
p322
I386
sS'serves'
p323
I39
sS'specific'
p324
I151
sS'either'
p325
I167
sS'night'
p326
I204
sS'popular'
p327
I387
sS'names'
p328
I297
sS'because'
p329
I298
sS'welconme'
p330
I388
sS'some'
p331
I133
sS'searching'
p332
I254
sS'pricing'
p333
I389
sS'choosing'
p334
I179
sS'dbye'
p335
I390
sS'thier'
p336
I255
sS'matching'
p337
I105
sS'provided'
p338
I391
sS'slot_food'
p339
I20
sS'slot_phone'
p340
I22
sS'does'
p341
I138
sS'?'
p342
I10
sS'locate'
p343
I393
sS'be'
p344
I90
sS'unfortuntately'
p345
I394
sS'servies'
p346
I395
sS'stay'
p347
I304
sS'by'
p348
I396
sS'moderatly'
p349
I397
sS'on'
p350
I73
sS'about'
p351
I63
sS'ok'
p352
I120
sS'anything'
p353
I49
sS'of'
p354
I56
sS'side'
p355
I141
sS'range'
p356
I160
sS'or'
p357
I77
sS'road'
p358
I225
sS'cambridge'
p359
I106
sS'servers'
p360
I398
sS'down'
p361
I399
sS'services'
p362
I400
sS'apologize'
p363
I401
sS'your'
p364
I67
sS'additional'
p365
I168
sS'there'
p366
I26
sS'lot'
p367
I299
sS'was'
p368
I226
sS'happy'
p369
I402
sS'offering'
p370
I403
sS'offer'
p371
I256
sS'criteria'
p372
I161
sS'but'
p373
I116
sS'back'
p374
I404
sS'hi'
p375
I145
sS'value_dontcare'
p376
I41
sS'trying'
p377
I300
sS'with'
p378
I58
sS'eat'
p379
I257
sS'he'
p380
I405
sS'info'
p381
I152
sS'restaraunt'
p382
I301
sS'up'
p383
I258
sS'us'
p384
I175
sS'problem'
p385
I302
sS'called'
p386
I134
sS'<unk>'
p387
I1
sS'int'
p388
I406
sS'certain'
p389
I180
sS'am'
p390
I44
sS'an'
p391
I55
sS'as'
p392
I121
sS'diverse'
p393
I407
sS'tasty'
p394
I408
sS'at'
p395
I52
sS'check'
p396
I259
sS'value_name'
p397
I17
sS'no'
p398
I47
sS'other'
p399
I98
sS'details'
p400
I409
sS'you'
p401
I9
sS'out'
p402
I410
sS'contacting'
p403
I303
sS'nice'
p404
I93
sS'requested'
p405
I411
sS'welcome'
p406
I66
sS'anythig'
p407
I371
sS'priced'
p408
I60
sS'restraunt'
p409
I205
sS'for'
p410
I27
sS'pricey'
p411
I412
sS'far'
p412
I413
sS'value_address'
p413
I35
sS'having'
p414
I305
s.